target datalayout = "e-m:e-p270:32:32-p271:32:32-p272:64:64-i64:64-i128:128-f80:128-n8:16:32:64-S128"
target triple = "x86_64-pc-linux-gnu"

%"class.google::protobuf::internal::ExtensionSet" = type { ptr, i16, i16, %"union.google::protobuf::internal::ExtensionSet::AllocatedData" }
%"union.google::protobuf::internal::ExtensionSet::AllocatedData" = type { ptr }
%"class.google::protobuf::internal::LogMessage" = type { i32, ptr, i32, %"class.std::__cxx11::basic_string" }
%"class.std::__cxx11::basic_string" = type { %"struct.std::__cxx11::basic_string<char>::_Alloc_hider", i64, %union.anon.3 }
%"struct.std::__cxx11::basic_string<char>::_Alloc_hider" = type { ptr }
%union.anon.3 = type { i64, [8 x i8] }
%"class.google::protobuf::internal::LogFinisher" = type { i8 }
%"struct.google::protobuf::internal::ExtensionSet::Extension" = type { %union.anon, i8, i8, i8, i8, i32, ptr }
%union.anon = type { i64 }

@.str = private unnamed_addr constant [152 x i8] c"generated/home/dtcxzyw/WorkSpace/Projects/compilers/llvm-opt-benchmark/bench/opencv/opencv/3rdparty/protobuf/src/google/protobuf/extension_set_heavy.cc\00", align 1
@.str.1 = private unnamed_addr constant [148 x i8] c"CHECK failed: ((*extension).is_repeated ? FieldDescriptor::LABEL_REPEATED : FieldDescriptor::LABEL_OPTIONAL) == (FieldDescriptor::LABEL_OPTIONAL): \00", align 1
@.str.2 = private unnamed_addr constant [84 x i8] c"CHECK failed: (cpp_type((*extension).type)) == (FieldDescriptor::CPPTYPE_MESSAGE): \00", align 1
@_ZN6google8protobuf15FieldDescriptor17kTypeToCppTypeMapE = external constant [19 x i32], align 16

; Function Attrs: inlinehint mustprogress nounwind uwtable
define linkonce_odr hidden noundef i32 @_ZN6google8protobuf15FieldDescriptor13TypeToCppTypeENS1_4TypeE(i32 noundef %0) #7 comdat align 2 {
  %2 = alloca i32, align 4
  store i32 %0, ptr %2, align 4, !tbaa !205
  %3 = load i32, ptr %2, align 4, !tbaa !205
  %4 = zext i32 %3 to i64
  %5 = getelementptr inbounds nuw [19 x i32], ptr @_ZN6google8protobuf15FieldDescriptor17kTypeToCppTypeMapE, i64 0, i64 %4
  %6 = load i32, ptr %5, align 4, !tbaa !112
  ret i32 %6
}

; Function Attrs: inlinehint mustprogress uwtable
define linkonce_odr hidden noundef i32 @_ZN6google8protobuf8internal8cpp_typeEh(i8 noundef zeroext %0) #6 comdat {
  %2 = alloca i8, align 1
  store i8 %0, ptr %2, align 1, !tbaa !26
  %3 = load i8, ptr %2, align 1, !tbaa !26
  %4 = zext i8 %3 to i32
  %5 = call noundef i32 @_ZN6google8protobuf15FieldDescriptor13TypeToCppTypeENS1_4TypeE(i32 noundef %4)
  ret i32 %5
}

; Function Attrs: mustprogress uwtable
define hidden noundef nonnull align 8 dereferenceable(16) ptr @_ZNK6google8protobuf8internal12ExtensionSet10GetMessageEiPKNS0_10DescriptorEPNS0_14MessageFactoryE(ptr noundef nonnull align 8 dereferenceable(24) %0, i32 noundef %1, ptr noundef %2, ptr noundef %3) #4 align 2 personality ptr @__gxx_personality_v0 {
  %5 = alloca ptr, align 8
  %6 = alloca ptr, align 8
  %7 = alloca i32, align 4
  %8 = alloca ptr, align 8
  %9 = alloca ptr, align 8
  %10 = alloca ptr, align 8
  %11 = alloca i32, align 4
  %12 = alloca %"class.google::protobuf::internal::LogMessage", align 8
  %13 = alloca i1, align 1
  %14 = alloca i1, align 1
  %15 = alloca ptr, align 8
  %16 = alloca i32, align 4
  %17 = alloca %"class.google::protobuf::internal::LogFinisher", align 1
  %18 = alloca %"class.google::protobuf::internal::LogMessage", align 8
  %19 = alloca i1, align 1
  %20 = alloca i1, align 1
  %21 = alloca %"class.google::protobuf::internal::LogFinisher", align 1
  store ptr %0, ptr %6, align 8, !tbaa !29
  store i32 %1, ptr %7, align 4, !tbaa !10
  store ptr %2, ptr %8, align 8, !tbaa !31
  store ptr %3, ptr %9, align 8, !tbaa !43
  %22 = load ptr, ptr %6, align 8
  call void @llvm.lifetime.start.p0(i64 8, ptr %10) #3
  %23 = load i32, ptr %7, align 4, !tbaa !10
  %24 = call noundef ptr @_ZNK6google8protobuf8internal12ExtensionSet10FindOrNullEi(ptr noundef nonnull align 8 dereferenceable(24) %22, i32 noundef %23)
  store ptr %24, ptr %10, align 8, !tbaa !44
  %25 = load ptr, ptr %10, align 8, !tbaa !44
  %26 = icmp eq ptr %25, null
  br i1 %26, label %33, label %27

27:                                               ; preds = %4
  %28 = load ptr, ptr %10, align 8, !tbaa !44
  %29 = getelementptr inbounds nuw %"struct.google::protobuf::internal::ExtensionSet::Extension", ptr %28, i32 0, i32 3
  %30 = load i8, ptr %29, align 2
  %31 = and i8 %30, 15
  %32 = trunc i8 %31 to i1
  br i1 %32, label %33, label %40

33:                                               ; preds = %27, %4
  %34 = load ptr, ptr %9, align 8, !tbaa !43
  %35 = load ptr, ptr %8, align 8, !tbaa !31
  %36 = load ptr, ptr %34, align 8, !tbaa !46
  %37 = getelementptr inbounds ptr, ptr %36, i64 2
  %38 = load ptr, ptr %37, align 8
  %39 = call noundef ptr %38(ptr noundef nonnull align 8 dereferenceable(8) %34, ptr noundef %35)
  store ptr %39, ptr %5, align 8
  store i32 1, ptr %11, align 4
  br label %137

40:                                               ; preds = %27
  br label %41

41:                                               ; preds = %60, %40
  br i1 false, label %42, label %76

42:                                               ; preds = %41
  %43 = load ptr, ptr %10, align 8, !tbaa !44
  %44 = getelementptr inbounds nuw %"struct.google::protobuf::internal::ExtensionSet::Extension", ptr %43, i32 0, i32 2
  %45 = load i8, ptr %44, align 1, !tbaa !48, !range !51, !noundef !52
  %46 = trunc i8 %45 to i1
  %47 = select i1 %46, i32 3, i32 1
  %48 = icmp eq i32 %47, 1
  store i1 false, ptr %13, align 1
  store i1 false, ptr %14, align 1
  call void @llvm.lifetime.start.p0(i64 1, ptr %17) #3
  br i1 %48, label %49, label %50

49:                                               ; preds = %42
  br label %54

50:                                               ; preds = %42
  call void @llvm.lifetime.start.p0(i64 56, ptr %12) #3
  store i1 true, ptr %13, align 1
  call void @_ZN6google8protobuf8internal10LogMessageC1ENS0_8LogLevelEPKci(ptr noundef nonnull align 8 dereferenceable(56) %12, i32 noundef 3, ptr noundef @.str, i32 noundef 157)
  store i1 true, ptr %14, align 1
  %51 = invoke noundef nonnull align 8 dereferenceable(56) ptr @_ZN6google8protobuf8internal10LogMessagelsEPKc(ptr noundef nonnull align 8 dereferenceable(56) %12, ptr noundef @.str.1)
          to label %52 unwind label %61

52:                                               ; preds = %50
  invoke void @_ZN6google8protobuf8internal11LogFinisheraSERNS1_10LogMessageE(ptr noundef nonnull align 1 dereferenceable(1) %17, ptr noundef nonnull align 8 dereferenceable(56) %51)
          to label %53 unwind label %65

53:                                               ; preds = %52
  br label %54

54:                                               ; preds = %53, %49
  call void @llvm.lifetime.end.p0(i64 1, ptr %17) #3
  %55 = load i1, ptr %14, align 1
  br i1 %55, label %56, label %57

56:                                               ; preds = %54
  call void @_ZN6google8protobuf8internal10LogMessageD1Ev(ptr noundef nonnull align 8 dereferenceable(56) %12) #3
  br label %57

57:                                               ; preds = %56, %54
  %58 = load i1, ptr %13, align 1
  br i1 %58, label %59, label %60

59:                                               ; preds = %57
  call void @llvm.lifetime.end.p0(i64 56, ptr %12) #3
  br label %60

60:                                               ; preds = %59, %57
  br label %41, !llvm.loop !53

61:                                               ; preds = %50
  %62 = landingpad { ptr, i32 }
          cleanup
  %63 = extractvalue { ptr, i32 } %62, 0
  store ptr %63, ptr %15, align 8
  %64 = extractvalue { ptr, i32 } %62, 1
  store i32 %64, ptr %16, align 4
  br label %69

65:                                               ; preds = %52
  %66 = landingpad { ptr, i32 }
          cleanup
  %67 = extractvalue { ptr, i32 } %66, 0
  store ptr %67, ptr %15, align 8
  %68 = extractvalue { ptr, i32 } %66, 1
  store i32 %68, ptr %16, align 4
  call void @llvm.lifetime.end.p0(i64 1, ptr %17) #3
  br label %69

69:                                               ; preds = %65, %61
  %70 = load i1, ptr %14, align 1
  br i1 %70, label %71, label %72

71:                                               ; preds = %69
  call void @_ZN6google8protobuf8internal10LogMessageD1Ev(ptr noundef nonnull align 8 dereferenceable(56) %12) #3
  br label %72

72:                                               ; preds = %71, %69
  %73 = load i1, ptr %13, align 1
  br i1 %73, label %74, label %75

74:                                               ; preds = %72
  call void @llvm.lifetime.end.p0(i64 56, ptr %12) #3
  br label %75

75:                                               ; preds = %74, %72
  br label %139

76:                                               ; preds = %41
  br label %77

77:                                               ; preds = %95, %76
  br i1 false, label %78, label %111

78:                                               ; preds = %77
  %79 = load ptr, ptr %10, align 8, !tbaa !44
  %80 = getelementptr inbounds nuw %"struct.google::protobuf::internal::ExtensionSet::Extension", ptr %79, i32 0, i32 1
  %81 = load i8, ptr %80, align 8, !tbaa !55
  %82 = call noundef i32 @_ZN6google8protobuf8internal8cpp_typeEh(i8 noundef zeroext %81)
  %83 = icmp eq i32 %82, 10
  store i1 false, ptr %19, align 1
  store i1 false, ptr %20, align 1
  call void @llvm.lifetime.start.p0(i64 1, ptr %21) #3
  br i1 %83, label %84, label %85

84:                                               ; preds = %78
  br label %89

85:                                               ; preds = %78
  call void @llvm.lifetime.start.p0(i64 56, ptr %18) #3
  store i1 true, ptr %19, align 1
  call void @_ZN6google8protobuf8internal10LogMessageC1ENS0_8LogLevelEPKci(ptr noundef nonnull align 8 dereferenceable(56) %18, i32 noundef 3, ptr noundef @.str, i32 noundef 157)
  store i1 true, ptr %20, align 1
  %86 = invoke noundef nonnull align 8 dereferenceable(56) ptr @_ZN6google8protobuf8internal10LogMessagelsEPKc(ptr noundef nonnull align 8 dereferenceable(56) %18, ptr noundef @.str.2)
          to label %87 unwind label %96

87:                                               ; preds = %85
  invoke void @_ZN6google8protobuf8internal11LogFinisheraSERNS1_10LogMessageE(ptr noundef nonnull align 1 dereferenceable(1) %21, ptr noundef nonnull align 8 dereferenceable(56) %86)
          to label %88 unwind label %100

88:                                               ; preds = %87
  br label %89

89:                                               ; preds = %88, %84
  call void @llvm.lifetime.end.p0(i64 1, ptr %21) #3
  %90 = load i1, ptr %20, align 1
  br i1 %90, label %91, label %92

91:                                               ; preds = %89
  call void @_ZN6google8protobuf8internal10LogMessageD1Ev(ptr noundef nonnull align 8 dereferenceable(56) %18) #3
  br label %92

92:                                               ; preds = %91, %89
  %93 = load i1, ptr %19, align 1
  br i1 %93, label %94, label %95

94:                                               ; preds = %92
  call void @llvm.lifetime.end.p0(i64 56, ptr %18) #3
  br label %95

95:                                               ; preds = %94, %92
  br label %77, !llvm.loop !56

96:                                               ; preds = %85
  %97 = landingpad { ptr, i32 }
          cleanup
  %98 = extractvalue { ptr, i32 } %97, 0
  store ptr %98, ptr %15, align 8
  %99 = extractvalue { ptr, i32 } %97, 1
  store i32 %99, ptr %16, align 4
  br label %104

100:                                              ; preds = %87
  %101 = landingpad { ptr, i32 }
          cleanup
  %102 = extractvalue { ptr, i32 } %101, 0
  store ptr %102, ptr %15, align 8
  %103 = extractvalue { ptr, i32 } %101, 1
  store i32 %103, ptr %16, align 4
  call void @llvm.lifetime.end.p0(i64 1, ptr %21) #3
  br label %104

104:                                              ; preds = %100, %96
  %105 = load i1, ptr %20, align 1
  br i1 %105, label %106, label %107

106:                                              ; preds = %104
  call void @_ZN6google8protobuf8internal10LogMessageD1Ev(ptr noundef nonnull align 8 dereferenceable(56) %18) #3
  br label %107

107:                                              ; preds = %106, %104
  %108 = load i1, ptr %19, align 1
  br i1 %108, label %109, label %110

109:                                              ; preds = %107
  call void @llvm.lifetime.end.p0(i64 56, ptr %18) #3
  br label %110

110:                                              ; preds = %109, %107
  br label %139

111:                                              ; preds = %77
  %112 = load ptr, ptr %10, align 8, !tbaa !44
  %113 = getelementptr inbounds nuw %"struct.google::protobuf::internal::ExtensionSet::Extension", ptr %112, i32 0, i32 3
  %114 = load i8, ptr %113, align 2
  %115 = lshr i8 %114, 4
  %116 = trunc i8 %115 to i1
  br i1 %116, label %117, label %133

117:                                              ; preds = %111
  %118 = load ptr, ptr %10, align 8, !tbaa !44
  %119 = getelementptr inbounds nuw %"struct.google::protobuf::internal::ExtensionSet::Extension", ptr %118, i32 0, i32 0
  %120 = load ptr, ptr %119, align 8, !tbaa !26
  %121 = load ptr, ptr %9, align 8, !tbaa !43
  %122 = load ptr, ptr %8, align 8, !tbaa !31
  %123 = load ptr, ptr %121, align 8, !tbaa !46
  %124 = getelementptr inbounds ptr, ptr %123, i64 2
  %125 = load ptr, ptr %124, align 8
  %126 = call noundef ptr %125(ptr noundef nonnull align 8 dereferenceable(8) %121, ptr noundef %122)
  %127 = getelementptr inbounds nuw %"class.google::protobuf::internal::ExtensionSet", ptr %22, i32 0, i32 0
  %128 = load ptr, ptr %127, align 8, !tbaa !57
  %129 = load ptr, ptr %120, align 8, !tbaa !46
  %130 = getelementptr inbounds ptr, ptr %129, i64 3
  %131 = load ptr, ptr %130, align 8
  %132 = call noundef nonnull align 8 dereferenceable(16) ptr %131(ptr noundef nonnull align 8 dereferenceable(8) %120, ptr noundef nonnull align 8 dereferenceable(16) %126, ptr noundef %128)
  store ptr %132, ptr %5, align 8
  store i32 1, ptr %11, align 4
  br label %137

133:                                              ; preds = %111
  %134 = load ptr, ptr %10, align 8, !tbaa !44
  %135 = getelementptr inbounds nuw %"struct.google::protobuf::internal::ExtensionSet::Extension", ptr %134, i32 0, i32 0
  %136 = load ptr, ptr %135, align 8, !tbaa !26
  store ptr %136, ptr %5, align 8
  store i32 1, ptr %11, align 4
  br label %137

137:                                              ; preds = %133, %117, %33
  call void @llvm.lifetime.end.p0(i64 8, ptr %10) #3
  %138 = load ptr, ptr %5, align 8
  ret ptr %138

139:                                              ; preds = %110, %75
  call void @llvm.lifetime.end.p0(i64 8, ptr %10) #3
  br label %140

140:                                              ; preds = %139
  %141 = load ptr, ptr %15, align 8
  %142 = load i32, ptr %16, align 4
  %143 = insertvalue { ptr, i32 } poison, ptr %141, 0
  %144 = insertvalue { ptr, i32 } %143, i32 %142, 1
  resume { ptr, i32 } %144
}