; Function Attrs: mustprogress uwtable
define hidden noundef nonnull align 8 dereferenceable(16) ptr @_ZNK6google8protobuf8internal12ExtensionSet10GetMessageEiPKNS0_10DescriptorEPNS0_14MessageFactoryE(ptr noundef nonnull align 8 dereferenceable(24) %0, i32 noundef %1, ptr noundef %2, ptr noundef %3) local_unnamed_addr #3 align 2 personality ptr @__gxx_personality_v0 {
  %5 = tail call noundef ptr @_ZNK6google8protobuf8internal12ExtensionSet10FindOrNullEi(ptr noundef nonnull align 8 dereferenceable(24) %0, i32 noundef %1)
  %6 = icmp eq ptr %5, null
  br i1 %6, label %11, label %7

7:                                                ; preds = %4
  %8 = getelementptr inbounds nuw i8, ptr %5, i64 10
  %9 = load i8, ptr %8, align 2
  %10 = trunc i8 %9 to i1
  br i1 %10, label %11, label %16

11:                                               ; preds = %7, %4
  %12 = load ptr, ptr %3, align 8, !tbaa !52
  %13 = getelementptr inbounds nuw i8, ptr %12, i64 16
  %14 = load ptr, ptr %13, align 8
  %15 = tail call noundef ptr %14(ptr noundef nonnull align 8 dereferenceable(8) %3, ptr noundef %2)
  br label %29

16:                                               ; preds = %7
  %17 = and i8 %9, 16
  %.not = icmp eq i8 %17, 0
  %18 = load ptr, ptr %5, align 8, !tbaa !16
  br i1 %.not, label %29, label %19

19:                                               ; preds = %16
  %20 = load ptr, ptr %3, align 8, !tbaa !52
  %21 = getelementptr inbounds nuw i8, ptr %20, i64 16
  %22 = load ptr, ptr %21, align 8
  %23 = tail call noundef ptr %22(ptr noundef nonnull align 8 dereferenceable(8) %3, ptr noundef %2)
  %24 = load ptr, ptr %0, align 8, !tbaa !54
  %25 = load ptr, ptr %18, align 8, !tbaa !52
  %26 = getelementptr inbounds nuw i8, ptr %25, i64 24
  %27 = load ptr, ptr %26, align 8
  %28 = tail call noundef nonnull align 8 dereferenceable(16) ptr %27(ptr noundef nonnull align 8 dereferenceable(8) %18, ptr noundef nonnull align 8 dereferenceable(16) %23, ptr noundef %24)
  br label %29

29:                                               ; preds = %16, %19, %11
  %.0 = phi ptr [ %15, %11 ], [ %28, %19 ], [ %18, %16 ]
  ret ptr %.0
}